target datalayout = "e-m:e-p270:32:32-p271:32:32-p272:64:64-i64:64-i128:128-f80:128-n8:16:32:64-S128"
target triple = "x86_64-pc-linux-gnu"

%struct.sview_config_t = type { ptr, ptr, ptr, ptr, ptr, ptr, ptr, i16, i16, i8, i16, i32, i32, i32, i8, i32, i32, i32, i32, [10 x ptr], [10 x %struct.page_opts_t], [10 x i8], i16, i8, i8, i8, i8, i16, i32 }
%struct.page_opts_t = type { ptr, i8, ptr, ptr }
%struct.display_data = type { i64, i32, ptr, i8, i32, ptr, ptr, ptr, ptr, ptr, ptr, ptr, ptr }

@working_sview_config = external global %struct.sview_config_t, align 8

; Function Attrs: nounwind uwtable
define dso_local ptr @replus(ptr noundef %0) #0 {
  %2 = alloca ptr, align 8
  %3 = alloca i32, align 4
  store ptr %0, ptr %2, align 8
  call void @llvm.lifetime.start.p0(i64 4, ptr %3) #11
  store i32 0, ptr %3, align 4
  br label %4

4:                                                ; preds = %24, %1
  %5 = load ptr, ptr %2, align 8
  %6 = load i32, ptr %3, align 4
  %7 = sext i32 %6 to i64
  %8 = getelementptr inbounds i8, ptr %5, i64 %7
  %9 = load i8, ptr %8, align 1
  %10 = icmp ne i8 %9, 0
  br i1 %10, label %11, label %27

11:                                               ; preds = %4
  %12 = load ptr, ptr %2, align 8
  %13 = load i32, ptr %3, align 4
  %14 = sext i32 %13 to i64
  %15 = getelementptr inbounds i8, ptr %12, i64 %14
  %16 = load i8, ptr %15, align 1
  %17 = sext i8 %16 to i32
  %18 = icmp eq i32 %17, 95
  br i1 %18, label %19, label %24

19:                                               ; preds = %11
  %20 = load ptr, ptr %2, align 8
  %21 = load i32, ptr %3, align 4
  %22 = sext i32 %21 to i64
  %23 = getelementptr inbounds i8, ptr %20, i64 %22
  store i8 32, ptr %23, align 1
  br label %24

24:                                               ; preds = %19, %11
  %25 = load i32, ptr %3, align 4
  %26 = add nsw i32 %25, 1
  store i32 %26, ptr %3, align 4
  br label %4, !llvm.loop !11

27:                                               ; preds = %4
  %28 = load ptr, ptr %2, align 8
  call void @llvm.lifetime.end.p0(i64 4, ptr %3) #11
  ret ptr %28
}

; Function Attrs: nounwind uwtable
define dso_local void @set_page_opts(i32 noundef %0, ptr noundef %1, i32 noundef %2, ptr noundef %3) #0 {
  %5 = alloca i32, align 4
  %6 = alloca ptr, align 8
  %7 = alloca i32, align 4
  %8 = alloca ptr, align 8
  %9 = alloca ptr, align 8
  %10 = alloca ptr, align 8
  %11 = alloca ptr, align 8
  store i32 %0, ptr %5, align 4
  store ptr %1, ptr %6, align 8
  store i32 %2, ptr %7, align 4
  store ptr %3, ptr %8, align 8
  call void @llvm.lifetime.start.p0(i64 8, ptr %9) #11
  call void @llvm.lifetime.start.p0(i64 8, ptr %10) #11
  store ptr null, ptr %10, align 8
  call void @llvm.lifetime.start.p0(i64 8, ptr %11) #11
  store ptr null, ptr %11, align 8
  %12 = load i32, ptr %5, align 4
  %13 = sext i32 %12 to i64
  %14 = getelementptr inbounds [10 x %struct.page_opts_t], ptr getelementptr inbounds nuw (%struct.sview_config_t, ptr @working_sview_config, i32 0, i32 20), i64 0, i64 %13
  store ptr %14, ptr %9, align 8
  %15 = load ptr, ptr %9, align 8
  %16 = getelementptr inbounds nuw %struct.page_opts_t, ptr %15, i32 0, i32 0
  %17 = load ptr, ptr %16, align 8
  %18 = icmp ne ptr %17, null
  br i1 %18, label %30, label %19

19:                                               ; preds = %4
  %20 = load ptr, ptr %9, align 8
  %21 = getelementptr inbounds nuw %struct.page_opts_t, ptr %20, i32 0, i32 1
  store i8 1, ptr %21, align 8
  %22 = call ptr @list_create(ptr noundef @xfree_ptr)
  %23 = load ptr, ptr %9, align 8
  %24 = getelementptr inbounds nuw %struct.page_opts_t, ptr %23, i32 0, i32 0
  store ptr %22, ptr %24, align 8
  %25 = load ptr, ptr %9, align 8
  %26 = getelementptr inbounds nuw %struct.page_opts_t, ptr %25, i32 0, i32 0
  %27 = load ptr, ptr %26, align 8
  %28 = load ptr, ptr %8, align 8
  %29 = call i32 @slurm_addto_char_list(ptr noundef %27, ptr noundef %28)
  br label %30

30:                                               ; preds = %19, %4
  %31 = load ptr, ptr %6, align 8
  %32 = load ptr, ptr %9, align 8
  %33 = getelementptr inbounds nuw %struct.page_opts_t, ptr %32, i32 0, i32 2
  store ptr %31, ptr %33, align 8
  %34 = load ptr, ptr %9, align 8
  %35 = getelementptr inbounds nuw %struct.page_opts_t, ptr %34, i32 0, i32 0
  %36 = load ptr, ptr %35, align 8
  %37 = call ptr @list_iterator_create(ptr noundef %36)
  store ptr %37, ptr %10, align 8
  br label %38

38:                                               ; preds = %74, %30
  %39 = load ptr, ptr %10, align 8
  %40 = call ptr @list_next(ptr noundef %39)
  store ptr %40, ptr %11, align 8
  %41 = icmp ne ptr %40, null
  br i1 %41, label %42, label %78

42:                                               ; preds = %38
  %43 = load ptr, ptr %11, align 8
  %44 = call ptr @replus(ptr noundef %43)
  br label %45

45:                                               ; preds = %73, %60, %42
  %46 = load ptr, ptr %6, align 8
  %47 = getelementptr inbounds nuw %struct.display_data, ptr %46, i32 1
  store ptr %47, ptr %6, align 8
  %48 = icmp ne ptr %46, null
  br i1 %48, label %49, label %74

49:                                               ; preds = %45
  %50 = load ptr, ptr %6, align 8
  %51 = getelementptr inbounds nuw %struct.display_data, ptr %50, i32 0, i32 1
  %52 = load i32, ptr %51, align 8
  %53 = icmp eq i32 %52, -1
  br i1 %53, label %54, label %55

54:                                               ; preds = %49
  br label %74

55:                                               ; preds = %49
  %56 = load ptr, ptr %6, align 8
  %57 = getelementptr inbounds nuw %struct.display_data, ptr %56, i32 0, i32 2
  %58 = load ptr, ptr %57, align 8
  %59 = icmp ne ptr %58, null
  br i1 %59, label %61, label %60

60:                                               ; preds = %55
  br label %45, !llvm.loop !26

61:                                               ; preds = %55
  %62 = load ptr, ptr %11, align 8
  %63 = load ptr, ptr %6, align 8
  %64 = getelementptr inbounds nuw %struct.display_data, ptr %63, i32 0, i32 2
  %65 = load ptr, ptr %64, align 8
  %66 = load ptr, ptr %11, align 8
  %67 = call i64 @strlen(ptr noundef %66) #13
  %68 = call i32 @xstrncasecmp(ptr noundef %62, ptr noundef %65, i64 noundef %67)
  %69 = icmp ne i32 %68, 0
  br i1 %69, label %73, label %70

70:                                               ; preds = %61
  %71 = load ptr, ptr %6, align 8
  %72 = getelementptr inbounds nuw %struct.display_data, ptr %71, i32 0, i32 3
  store i8 1, ptr %72, align 8
  br label %74

73:                                               ; preds = %61
  br label %45, !llvm.loop !26

74:                                               ; preds = %70, %54, %45
  %75 = load ptr, ptr %9, align 8
  %76 = getelementptr inbounds nuw %struct.page_opts_t, ptr %75, i32 0, i32 2
  %77 = load ptr, ptr %76, align 8
  store ptr %77, ptr %6, align 8
  br label %38, !llvm.loop !27

78:                                               ; preds = %38
  %79 = load ptr, ptr %10, align 8
  call void @list_iterator_destroy(ptr noundef %79)
  call void @llvm.lifetime.end.p0(i64 8, ptr %11) #11
  call void @llvm.lifetime.end.p0(i64 8, ptr %10) #11
  call void @llvm.lifetime.end.p0(i64 8, ptr %9) #11
  ret void
}