; Function Attrs: nounwind uwtable
define dso_local void @set_page_opts(i32 noundef %0, ptr noundef %1, i32 noundef %2, ptr noundef %3) local_unnamed_addr #2 {
  %5 = sext i32 %0 to i64
  %6 = getelementptr inbounds [10 x %struct.page_opts_t], ptr getelementptr inbounds nuw (i8, ptr @working_sview_config, i64 176), i64 0, i64 %5
  %7 = load ptr, ptr %6, align 8
  %.not = icmp eq ptr %7, null
  br i1 %.not, label %8, label %12

8:                                                ; preds = %4
  %9 = getelementptr inbounds nuw i8, ptr %6, i64 8
  store i8 1, ptr %9, align 8
  %10 = tail call ptr @list_create(ptr noundef nonnull @xfree_ptr) #16
  store ptr %10, ptr %6, align 8
  %11 = tail call i32 @slurm_addto_char_list(ptr noundef %10, ptr noundef %3) #16
  %.pre = load ptr, ptr %6, align 8
  br label %12

12:                                               ; preds = %8, %4
  %13 = phi ptr [ %.pre, %8 ], [ %7, %4 ]
  %14 = getelementptr inbounds nuw i8, ptr %6, i64 16
  store ptr %1, ptr %14, align 8
  %15 = tail call ptr @list_iterator_create(ptr noundef %13) #16
  %16 = tail call ptr @list_next(ptr noundef %15) #16
  %.not2128 = icmp eq ptr %16, null
  br i1 %.not2128, label %._crit_edge, label %.preheader

.preheader:                                       ; preds = %12, %.loopexit
  %17 = phi ptr [ %38, %.loopexit ], [ %16, %12 ]
  %.029 = phi ptr [ %37, %.loopexit ], [ %1, %12 ]
  br label %18

18:                                               ; preds = %.preheader, %25
  %indvars.iv.i = phi i64 [ %indvars.iv.next.i, %25 ], [ 0, %.preheader ]
  %19 = getelementptr inbounds nuw i8, ptr %17, i64 %indvars.iv.i
  %20 = load i8, ptr %19, align 1
  switch i8 %20, label %25 [
    i8 0, label %replus.exit.preheader
    i8 95, label %24
  ]

replus.exit.preheader:                            ; preds = %18
  %.not2226 = icmp eq ptr %.029, null
  br i1 %.not2226, label %.loopexit, label %.lr.ph.preheader

.lr.ph.preheader:                                 ; preds = %replus.exit.preheader
  %21 = getelementptr inbounds nuw i8, ptr %.029, i64 104
  %22 = load i32, ptr %21, align 8
  %23 = icmp eq i32 %22, -1
  br i1 %23, label %.loopexit, label %.lr.ph34

24:                                               ; preds = %18
  store i8 32, ptr %19, align 1
  br label %25

25:                                               ; preds = %24, %18
  %indvars.iv.next.i = add nuw nsw i64 %indvars.iv.i, 1
  br label %18, !llvm.loop !11

.lr.ph34:                                         ; preds = %.lr.ph.preheader, %replus.exit.backedge
  %.12733 = phi ptr [ %26, %replus.exit.backedge ], [ %.029, %.lr.ph.preheader ]
  %26 = getelementptr inbounds nuw i8, ptr %.12733, i64 96
  %27 = getelementptr inbounds nuw i8, ptr %.12733, i64 112
  %28 = load ptr, ptr %27, align 8
  %.not23 = icmp eq ptr %28, null
  br i1 %.not23, label %replus.exit.backedge, label %32

replus.exit.backedge:                             ; preds = %.lr.ph34, %32
  %29 = getelementptr inbounds nuw i8, ptr %.12733, i64 200
  %30 = load i32, ptr %29, align 8
  %31 = icmp eq i32 %30, -1
  br i1 %31, label %.loopexit, label %.lr.ph34, !llvm.loop !24

32:                                               ; preds = %.lr.ph34
  %33 = tail call i64 @strlen(ptr noundef nonnull dereferenceable(1) %17) #18
  %34 = tail call i32 @xstrncasecmp(ptr noundef nonnull %17, ptr noundef nonnull %28, i64 noundef %33) #16
  %.not24 = icmp eq i32 %34, 0
  br i1 %.not24, label %35, label %replus.exit.backedge

35:                                               ; preds = %32
  %36 = getelementptr inbounds nuw i8, ptr %.12733, i64 120
  store i8 1, ptr %36, align 8
  br label %.loopexit

.loopexit:                                        ; preds = %replus.exit.backedge, %.lr.ph.preheader, %replus.exit.preheader, %35
  %37 = load ptr, ptr %14, align 8
  %38 = tail call ptr @list_next(ptr noundef %15) #16
  %.not21 = icmp eq ptr %38, null
  br i1 %.not21, label %._crit_edge, label %.preheader, !llvm.loop !25

._crit_edge:                                      ; preds = %.loopexit, %12
  tail call void @list_iterator_destroy(ptr noundef %15) #16
  ret void
}